(ikeras_frcnn.config
Config
p0
(dp1
S'use_vertical_flips'
p2
I00
sS'rpn_max_overlap'
p3
F0.7
sS'verbose'
p4
I01
sS'num_rois'
p5
I32
sS'img_channel_mean'
p6
(lp7
F103.939
aF116.779
aF123.68
asS'anchor_box_scales'
p8
(lp9
I128
aI256
aI512
asS'anchor_box_ratios'
p10
(lp11
(lp12
I1
aI1
aa(lp13
I1
aI2
aa(lp14
I2
aI1
aasS'rpn_min_overlap'
p15
F0.3
sS'rot_90'
p16
I00
sS'classifier_min_overlap'
p17
F0.1
sS'im_size'
p18
I600
sS'class_mapping'
p19
(dp20
S'pickup_truck'
p21
I4
sS'motorized_vehicle'
p22
I1
sS'bg'
p23
I11
sS'single_unit_truck'
p24
I7
sS'work_van'
p25
I8
sS'articulated_truck'
p26
I0
sS'non-motorized_vehicle'
p27
I9
sS'bus'
p28
I6
sS'pedestrian'
p29
I3
sS'motorcycle'
p30
I5
sS'car'
p31
I2
sS'bicycle'
p32
I10
ssS'img_scaling_factor'
p33
F1.0
sS'base_net_weights'
p34
S'resnet50_weights_tf_dim_ordering_tf_kernels_notop.h5'
p35
sS'classifier_regr_std'
p36
(lp37
F8.0
aF8.0
aF4.0
aF4.0
asS'model_path'
p38
S'./model_frcnn.hdf5'
p39
sS'classifier_max_overlap'
p40
F0.5
sS'std_scaling'
p41
F4.0
sS'use_horizontal_flips'
p42
I00
sS'rpn_stride'
p43
I16
sS'balanced_classes'
p44
I00
sb.